target datalayout = "e-m:e-p270:32:32-p271:32:32-p272:64:64-i64:64-i128:128-f80:128-n8:16:32:64-S128"
target triple = "x86_64-pc-linux-gnu"

%struct._tocEntry = type { ptr, ptr, %struct.CatalogId, i32, i32, i8, ptr, ptr, ptr, ptr, i8, ptr, ptr, ptr, ptr, ptr, ptr, i32, ptr, ptr, ptr, i64, i32, i8, ptr, ptr, i32, ptr, i32, ptr, i32 }
%struct.CatalogId = type { i32, i32 }
%struct.lclTocEntry = type { ptr }

; Function Attrs: nounwind uwtable
define internal void @_ReadExtraToc(ptr noundef %0, ptr noundef %1) #0 {
  %3 = alloca ptr, align 8
  %4 = alloca ptr, align 8
  %5 = alloca ptr, align 8
  store ptr %0, ptr %3, align 8
  store ptr %1, ptr %4, align 8
  call void @llvm.lifetime.start.p0(i64 8, ptr %5) #9
  %6 = load ptr, ptr %4, align 8
  %7 = getelementptr inbounds nuw %struct._tocEntry, ptr %6, i32 0, i32 20
  %8 = load ptr, ptr %7, align 8
  store ptr %8, ptr %5, align 8
  %9 = load ptr, ptr %5, align 8
  %10 = icmp eq ptr %9, null
  br i1 %10, label %11, label %16

11:                                               ; preds = %2
  %12 = call ptr @pg_malloc0(i64 noundef 8)
  store ptr %12, ptr %5, align 8
  %13 = load ptr, ptr %5, align 8
  %14 = load ptr, ptr %4, align 8
  %15 = getelementptr inbounds nuw %struct._tocEntry, ptr %14, i32 0, i32 20
  store ptr %13, ptr %15, align 8
  br label %16

16:                                               ; preds = %11, %2
  %17 = load ptr, ptr %3, align 8
  %18 = call ptr @ReadStr(ptr noundef %17)
  %19 = load ptr, ptr %5, align 8
  %20 = getelementptr inbounds nuw %struct.lclTocEntry, ptr %19, i32 0, i32 0
  store ptr %18, ptr %20, align 8
  %21 = load ptr, ptr %5, align 8
  %22 = getelementptr inbounds nuw %struct.lclTocEntry, ptr %21, i32 0, i32 0
  %23 = load ptr, ptr %22, align 8
  %24 = call i64 @strlen(ptr noundef %23) #10
  %25 = icmp eq i64 %24, 0
  br i1 %25, label %26, label %32

26:                                               ; preds = %16
  %27 = load ptr, ptr %5, align 8
  %28 = getelementptr inbounds nuw %struct.lclTocEntry, ptr %27, i32 0, i32 0
  %29 = load ptr, ptr %28, align 8
  call void @free(ptr noundef %29) #9
  %30 = load ptr, ptr %5, align 8
  %31 = getelementptr inbounds nuw %struct.lclTocEntry, ptr %30, i32 0, i32 0
  store ptr null, ptr %31, align 8
  br label %32

32:                                               ; preds = %26, %16
  call void @llvm.lifetime.end.p0(i64 8, ptr %5) #9
  ret void
}