; Function Attrs: nounwind uwtable
define internal void @_ReadExtraToc(ptr noundef %0, ptr noundef captures(none) %1) #0 {
  %3 = getelementptr inbounds nuw i8, ptr %1, i64 152
  %4 = load ptr, ptr %3, align 8
  %5 = icmp eq ptr %4, null
  br i1 %5, label %6, label %8

6:                                                ; preds = %2
  %7 = tail call ptr @pg_malloc0(i64 noundef 8) #14
  store ptr %7, ptr %3, align 8
  br label %8

8:                                                ; preds = %6, %2
  %.0 = phi ptr [ %7, %6 ], [ %4, %2 ]
  %9 = tail call ptr @ReadStr(ptr noundef %0) #14
  store ptr %9, ptr %.0, align 8
  %char0 = load i8, ptr %9, align 1
  %10 = icmp eq i8 %char0, 0
  br i1 %10, label %11, label %12

11:                                               ; preds = %8
  tail call void @free(ptr noundef nonnull %9) #14
  store ptr null, ptr %.0, align 8
  br label %12

12:                                               ; preds = %11, %8
  ret void
}